target datalayout = "e-m:e-p270:32:32-p271:32:32-p272:64:64-i64:64-i128:128-f80:128-n8:16:32:64-S128"
target triple = "x86_64-pc-linux-gnu"

%struct.rb_data_type_struct = type { ptr, %struct.anon.12, ptr, ptr, i64 }
%struct.anon.12 = type { ptr, ptr, ptr, ptr, [1 x ptr] }
%struct.rb_execarg = type { %union.anon.13, i64, i64, i64, i64, i16, ptr, ptr, i32, i64, i32, i32, i32, i32, i64, i64, i64, i64, i64, i64, i64 }
%union.anon.13 = type { %struct.anon.15 }
%struct.anon.15 = type { i64, i64, i64, i64 }
%struct.spawn_args = type { i64, %struct.anon.37 }
%struct.anon.37 = type { ptr, i64 }

@exec_arg_data_type = internal constant %struct.rb_data_type_struct { ptr @.str.186, %struct.anon.12 { ptr @mark_exec_arg, ptr inttoptr (i64 -1 to ptr), ptr @memsize_exec_arg, ptr null, [1 x ptr] zeroinitializer }, ptr null, ptr null, i64 3 }, align 8

; Function Attrs: nounwind sspstrong uwtable
define internal i32 @rb_spawn_process(ptr noundef %0, ptr noundef %1, i64 noundef %2) #0 {
  %4 = alloca ptr, align 8
  %5 = alloca ptr, align 8
  %6 = alloca i64, align 8
  %7 = alloca i32, align 4
  store ptr %0, ptr %4, align 8, !tbaa !68
  store ptr %1, ptr %5, align 8, !tbaa !64
  store i64 %2, ptr %6, align 8, !tbaa !35
  call void @llvm.lifetime.start.p0(i64 4, ptr %7) #27
  %8 = load ptr, ptr %4, align 8, !tbaa !68
  %9 = getelementptr inbounds nuw %struct.rb_execarg, ptr %8, i32 0, i32 6
  %10 = load ptr, ptr %9, align 8, !tbaa !190
  %11 = load ptr, ptr %4, align 8, !tbaa !68
  %12 = load ptr, ptr %4, align 8, !tbaa !68
  %13 = getelementptr inbounds nuw %struct.rb_execarg, ptr %12, i32 0, i32 1
  %14 = load i64, ptr %13, align 8, !tbaa !100
  %15 = load ptr, ptr %5, align 8, !tbaa !64
  %16 = load i64, ptr %6, align 8, !tbaa !35
  %17 = load ptr, ptr %4, align 8, !tbaa !68
  %18 = call i32 @fork_check_err(ptr noundef %10, ptr noundef @rb_exec_atfork, ptr noundef %11, i64 noundef %14, ptr noundef %15, i64 noundef %16, ptr noundef %17)
  store i32 %18, ptr %7, align 4, !tbaa !34
  %19 = load i32, ptr %7, align 4, !tbaa !34
  call void @llvm.lifetime.end.p0(i64 4, ptr %7) #27
  ret i32 %19
}

; Function Attrs: nounwind sspstrong uwtable
define dso_local ptr @rb_execarg_get(i64 noundef %0) #0 {
  %2 = alloca i64, align 8
  %3 = alloca ptr, align 8
  store i64 %0, ptr %2, align 8, !tbaa !35
  call void @llvm.lifetime.start.p0(i64 8, ptr %3) #27
  %4 = load i64, ptr %2, align 8, !tbaa !35
  %5 = call ptr @rb_check_typeddata(i64 noundef %4, ptr noundef @exec_arg_data_type)
  store ptr %5, ptr %3, align 8, !tbaa !68
  %6 = load ptr, ptr %3, align 8, !tbaa !68
  call void @llvm.lifetime.end.p0(i64 8, ptr %3) #27
  ret ptr %6
}

; Function Attrs: nounwind sspstrong uwtable
define internal i64 @do_spawn_process(i64 noundef %0) #0 {
  %2 = alloca i64, align 8
  %3 = alloca ptr, align 8
  store i64 %0, ptr %2, align 8, !tbaa !35
  call void @llvm.lifetime.start.p0(i64 8, ptr %3) #27
  %4 = load i64, ptr %2, align 8, !tbaa !35
  %5 = inttoptr i64 %4 to ptr
  store ptr %5, ptr %3, align 8, !tbaa !287
  %6 = load ptr, ptr %3, align 8, !tbaa !287
  %7 = getelementptr inbounds nuw %struct.spawn_args, ptr %6, i32 0, i32 0
  %8 = load i64, ptr %7, align 8, !tbaa !282
  %9 = call i64 @rb_execarg_parent_start1(i64 noundef %8)
  %10 = load ptr, ptr %3, align 8, !tbaa !287
  %11 = getelementptr inbounds nuw %struct.spawn_args, ptr %10, i32 0, i32 0
  %12 = load i64, ptr %11, align 8, !tbaa !282
  %13 = call ptr @rb_execarg_get(i64 noundef %12)
  %14 = load ptr, ptr %3, align 8, !tbaa !287
  %15 = getelementptr inbounds nuw %struct.spawn_args, ptr %14, i32 0, i32 1
  %16 = getelementptr inbounds nuw %struct.anon.37, ptr %15, i32 0, i32 0
  %17 = load ptr, ptr %16, align 8, !tbaa !285
  %18 = load ptr, ptr %3, align 8, !tbaa !287
  %19 = getelementptr inbounds nuw %struct.spawn_args, ptr %18, i32 0, i32 1
  %20 = getelementptr inbounds nuw %struct.anon.37, ptr %19, i32 0, i32 1
  %21 = load i64, ptr %20, align 8, !tbaa !286
  %22 = call i32 @rb_spawn_process(ptr noundef %13, ptr noundef %17, i64 noundef %21)
  %23 = sext i32 %22 to i64
  call void @llvm.lifetime.end.p0(i64 8, ptr %3) #27
  ret i64 %23
}