; Function Attrs: nounwind sspstrong uwtable
define internal range(i64 -1, 2147483648) i64 @do_spawn_process(i64 noundef %0) #1 {
  %2 = inttoptr i64 %0 to ptr
  %3 = load i64, ptr %2, align 8, !tbaa !316
  %4 = tail call i64 @rb_execarg_parent_start1(i64 noundef %3)
  %5 = load i64, ptr %2, align 8, !tbaa !316
  %6 = tail call ptr @rb_check_typeddata(i64 noundef %5, ptr noundef nonnull @exec_arg_data_type) #27
  %7 = getelementptr inbounds nuw i8, ptr %2, i64 8
  %8 = load ptr, ptr %7, align 8, !tbaa !319
  %9 = getelementptr inbounds nuw i8, ptr %2, i64 16
  %10 = load i64, ptr %9, align 8, !tbaa !320
  %11 = getelementptr inbounds nuw i8, ptr %6, i64 72
  %12 = load ptr, ptr %11, align 8, !tbaa !250
  %13 = getelementptr inbounds nuw i8, ptr %6, i64 32
  %14 = load i64, ptr %13, align 8, !tbaa !150
  %15 = tail call fastcc range(i32 -1, -2147483648) i32 @fork_check_err(ptr noundef %12, ptr noundef nonnull @rb_exec_atfork, ptr noundef %6, i64 noundef %14, ptr noundef %8, i64 noundef %10, ptr noundef %6)
  %16 = sext i32 %15 to i64
  ret i64 %16
}